target datalayout = "e-m:e-p270:32:32-p271:32:32-p272:64:64-i64:64-i128:128-f80:128-n8:16:32:64-S128"
target triple = "x86_64-pc-linux-gnu"

%struct.sfparse_parser = type { ptr, ptr, i32 }
%struct.sfparse_value = type { i32, i32, %union.anon }
%union.anon = type { %struct.sfparse_decimal }
%struct.sfparse_decimal = type { i64, i64 }
%struct.sfparse_vec = type { ptr, i64 }

; Function Attrs: nounwind uwtable
define internal i32 @parser_eof(ptr noundef %0) #0 {
  %2 = alloca ptr, align 8
  store ptr %0, ptr %2, align 8, !tbaa !3
  %3 = load ptr, ptr %2, align 8, !tbaa !3
  %4 = getelementptr inbounds nuw %struct.sfparse_parser, ptr %3, i32 0, i32 0
  %5 = load ptr, ptr %4, align 8, !tbaa !17
  %6 = load ptr, ptr %2, align 8, !tbaa !3
  %7 = getelementptr inbounds nuw %struct.sfparse_parser, ptr %6, i32 0, i32 1
  %8 = load ptr, ptr %7, align 8, !tbaa !22
  %9 = icmp eq ptr %5, %8
  %10 = zext i1 %9 to i32
  ret i32 %10
}

; Function Attrs: nounwind uwtable
define internal i32 @parser_token(ptr noundef %0, ptr noundef %1) #0 {
  %3 = alloca ptr, align 8
  %4 = alloca ptr, align 8
  %5 = alloca ptr, align 8
  store ptr %0, ptr %3, align 8, !tbaa !3
  store ptr %1, ptr %4, align 8, !tbaa !10
  call void @llvm.lifetime.start.p0(i64 8, ptr %5) #5
  %6 = load ptr, ptr %3, align 8, !tbaa !3
  %7 = getelementptr inbounds nuw %struct.sfparse_parser, ptr %6, i32 0, i32 0
  %8 = load ptr, ptr %7, align 8, !tbaa !17
  %9 = getelementptr inbounds nuw i8, ptr %8, i32 1
  store ptr %9, ptr %7, align 8, !tbaa !17
  store ptr %8, ptr %5, align 8, !tbaa !25
  br label %10

10:                                               ; preds = %23, %2
  %11 = load ptr, ptr %3, align 8, !tbaa !3
  %12 = call i32 @parser_eof(ptr noundef %11)
  %13 = icmp ne i32 %12, 0
  %14 = xor i1 %13, true
  br i1 %14, label %15, label %28

15:                                               ; preds = %10
  %16 = load ptr, ptr %3, align 8, !tbaa !3
  %17 = getelementptr inbounds nuw %struct.sfparse_parser, ptr %16, i32 0, i32 0
  %18 = load ptr, ptr %17, align 8, !tbaa !17
  %19 = load i8, ptr %18, align 1, !tbaa !18
  %20 = zext i8 %19 to i32
  switch i32 %20, label %22 [
    i32 33, label %21
    i32 35, label %21
    i32 36, label %21
    i32 37, label %21
    i32 38, label %21
    i32 39, label %21
    i32 42, label %21
    i32 43, label %21
    i32 45, label %21
    i32 46, label %21
    i32 47, label %21
    i32 48, label %21
    i32 49, label %21
    i32 50, label %21
    i32 51, label %21
    i32 52, label %21
    i32 53, label %21
    i32 54, label %21
    i32 55, label %21
    i32 56, label %21
    i32 57, label %21
    i32 58, label %21
    i32 65, label %21
    i32 66, label %21
    i32 67, label %21
    i32 68, label %21
    i32 69, label %21
    i32 70, label %21
    i32 71, label %21
    i32 72, label %21
    i32 73, label %21
    i32 74, label %21
    i32 75, label %21
    i32 76, label %21
    i32 77, label %21
    i32 78, label %21
    i32 79, label %21
    i32 80, label %21
    i32 81, label %21
    i32 82, label %21
    i32 83, label %21
    i32 84, label %21
    i32 85, label %21
    i32 86, label %21
    i32 87, label %21
    i32 88, label %21
    i32 89, label %21
    i32 90, label %21
    i32 94, label %21
    i32 95, label %21
    i32 96, label %21
    i32 97, label %21
    i32 98, label %21
    i32 99, label %21
    i32 100, label %21
    i32 101, label %21
    i32 102, label %21
    i32 103, label %21
    i32 104, label %21
    i32 105, label %21
    i32 106, label %21
    i32 107, label %21
    i32 108, label %21
    i32 109, label %21
    i32 110, label %21
    i32 111, label %21
    i32 112, label %21
    i32 113, label %21
    i32 114, label %21
    i32 115, label %21
    i32 116, label %21
    i32 117, label %21
    i32 118, label %21
    i32 119, label %21
    i32 120, label %21
    i32 121, label %21
    i32 122, label %21
    i32 124, label %21
    i32 126, label %21
  ]

21:                                               ; preds = %15, %15, %15, %15, %15, %15, %15, %15, %15, %15, %15, %15, %15, %15, %15, %15, %15, %15, %15, %15, %15, %15, %15, %15, %15, %15, %15, %15, %15, %15, %15, %15, %15, %15, %15, %15, %15, %15, %15, %15, %15, %15, %15, %15, %15, %15, %15, %15, %15, %15, %15, %15, %15, %15, %15, %15, %15, %15, %15, %15, %15, %15, %15, %15, %15, %15, %15, %15, %15, %15, %15, %15, %15, %15, %15, %15, %15, %15, %15
  br label %23

22:                                               ; preds = %15
  br label %28

23:                                               ; preds = %21
  %24 = load ptr, ptr %3, align 8, !tbaa !3
  %25 = getelementptr inbounds nuw %struct.sfparse_parser, ptr %24, i32 0, i32 0
  %26 = load ptr, ptr %25, align 8, !tbaa !17
  %27 = getelementptr inbounds nuw i8, ptr %26, i32 1
  store ptr %27, ptr %25, align 8, !tbaa !17
  br label %10, !llvm.loop !42

28:                                               ; preds = %22, %10
  %29 = load ptr, ptr %4, align 8, !tbaa !10
  %30 = icmp ne ptr %29, null
  br i1 %30, label %31, label %50

31:                                               ; preds = %28
  %32 = load ptr, ptr %4, align 8, !tbaa !10
  %33 = getelementptr inbounds nuw %struct.sfparse_value, ptr %32, i32 0, i32 0
  store i32 4, ptr %33, align 8, !tbaa !19
  %34 = load ptr, ptr %4, align 8, !tbaa !10
  %35 = getelementptr inbounds nuw %struct.sfparse_value, ptr %34, i32 0, i32 1
  store i32 0, ptr %35, align 4, !tbaa !21
  %36 = load ptr, ptr %5, align 8, !tbaa !25
  %37 = load ptr, ptr %4, align 8, !tbaa !10
  %38 = getelementptr inbounds nuw %struct.sfparse_value, ptr %37, i32 0, i32 2
  %39 = getelementptr inbounds nuw %struct.sfparse_vec, ptr %38, i32 0, i32 0
  store ptr %36, ptr %39, align 8, !tbaa !18
  %40 = load ptr, ptr %3, align 8, !tbaa !3
  %41 = getelementptr inbounds nuw %struct.sfparse_parser, ptr %40, i32 0, i32 0
  %42 = load ptr, ptr %41, align 8, !tbaa !17
  %43 = load ptr, ptr %5, align 8, !tbaa !25
  %44 = ptrtoint ptr %42 to i64
  %45 = ptrtoint ptr %43 to i64
  %46 = sub i64 %44, %45
  %47 = load ptr, ptr %4, align 8, !tbaa !10
  %48 = getelementptr inbounds nuw %struct.sfparse_value, ptr %47, i32 0, i32 2
  %49 = getelementptr inbounds nuw %struct.sfparse_vec, ptr %48, i32 0, i32 1
  store i64 %46, ptr %49, align 8, !tbaa !18
  br label %50

50:                                               ; preds = %31, %28
  call void @llvm.lifetime.end.p0(i64 8, ptr %5) #5
  ret i32 0
}

; Function Attrs: nounwind uwtable
define internal i32 @parser_bare_item(ptr noundef %0, ptr noundef %1) #0 {
  %3 = alloca i32, align 4
  %4 = alloca ptr, align 8
  %5 = alloca ptr, align 8
  store ptr %0, ptr %4, align 8, !tbaa !3
  store ptr %1, ptr %5, align 8, !tbaa !10
  %6 = load ptr, ptr %4, align 8, !tbaa !3
  %7 = getelementptr inbounds nuw %struct.sfparse_parser, ptr %6, i32 0, i32 0
  %8 = load ptr, ptr %7, align 8, !tbaa !17
  %9 = load i8, ptr %8, align 1, !tbaa !18
  %10 = zext i8 %9 to i32
  switch i32 %10, label %39 [
    i32 34, label %11
    i32 45, label %15
    i32 48, label %15
    i32 49, label %15
    i32 50, label %15
    i32 51, label %15
    i32 52, label %15
    i32 53, label %15
    i32 54, label %15
    i32 55, label %15
    i32 56, label %15
    i32 57, label %15
    i32 64, label %19
    i32 58, label %23
    i32 63, label %27
    i32 42, label %31
    i32 65, label %31
    i32 66, label %31
    i32 67, label %31
    i32 68, label %31
    i32 69, label %31
    i32 70, label %31
    i32 71, label %31
    i32 72, label %31
    i32 73, label %31
    i32 74, label %31
    i32 75, label %31
    i32 76, label %31
    i32 77, label %31
    i32 78, label %31
    i32 79, label %31
    i32 80, label %31
    i32 81, label %31
    i32 82, label %31
    i32 83, label %31
    i32 84, label %31
    i32 85, label %31
    i32 86, label %31
    i32 87, label %31
    i32 88, label %31
    i32 89, label %31
    i32 90, label %31
    i32 97, label %31
    i32 98, label %31
    i32 99, label %31
    i32 100, label %31
    i32 101, label %31
    i32 102, label %31
    i32 103, label %31
    i32 104, label %31
    i32 105, label %31
    i32 106, label %31
    i32 107, label %31
    i32 108, label %31
    i32 109, label %31
    i32 110, label %31
    i32 111, label %31
    i32 112, label %31
    i32 113, label %31
    i32 114, label %31
    i32 115, label %31
    i32 116, label %31
    i32 117, label %31
    i32 118, label %31
    i32 119, label %31
    i32 120, label %31
    i32 121, label %31
    i32 122, label %31
    i32 37, label %35
  ]

11:                                               ; preds = %2
  %12 = load ptr, ptr %4, align 8, !tbaa !3
  %13 = load ptr, ptr %5, align 8, !tbaa !10
  %14 = call i32 @parser_string(ptr noundef %12, ptr noundef %13)
  store i32 %14, ptr %3, align 4
  br label %40

15:                                               ; preds = %2, %2, %2, %2, %2, %2, %2, %2, %2, %2, %2
  %16 = load ptr, ptr %4, align 8, !tbaa !3
  %17 = load ptr, ptr %5, align 8, !tbaa !10
  %18 = call i32 @parser_number(ptr noundef %16, ptr noundef %17)
  store i32 %18, ptr %3, align 4
  br label %40

19:                                               ; preds = %2
  %20 = load ptr, ptr %4, align 8, !tbaa !3
  %21 = load ptr, ptr %5, align 8, !tbaa !10
  %22 = call i32 @parser_date(ptr noundef %20, ptr noundef %21)
  store i32 %22, ptr %3, align 4
  br label %40

23:                                               ; preds = %2
  %24 = load ptr, ptr %4, align 8, !tbaa !3
  %25 = load ptr, ptr %5, align 8, !tbaa !10
  %26 = call i32 @parser_byteseq(ptr noundef %24, ptr noundef %25)
  store i32 %26, ptr %3, align 4
  br label %40

27:                                               ; preds = %2
  %28 = load ptr, ptr %4, align 8, !tbaa !3
  %29 = load ptr, ptr %5, align 8, !tbaa !10
  %30 = call i32 @parser_boolean(ptr noundef %28, ptr noundef %29)
  store i32 %30, ptr %3, align 4
  br label %40

31:                                               ; preds = %2, %2, %2, %2, %2, %2, %2, %2, %2, %2, %2, %2, %2, %2, %2, %2, %2, %2, %2, %2, %2, %2, %2, %2, %2, %2, %2, %2, %2, %2, %2, %2, %2, %2, %2, %2, %2, %2, %2, %2, %2, %2, %2, %2, %2, %2, %2, %2, %2, %2, %2, %2, %2
  %32 = load ptr, ptr %4, align 8, !tbaa !3
  %33 = load ptr, ptr %5, align 8, !tbaa !10
  %34 = call i32 @parser_token(ptr noundef %32, ptr noundef %33)
  store i32 %34, ptr %3, align 4
  br label %40

35:                                               ; preds = %2
  %36 = load ptr, ptr %4, align 8, !tbaa !3
  %37 = load ptr, ptr %5, align 8, !tbaa !10
  %38 = call i32 @parser_dispstring(ptr noundef %36, ptr noundef %37)
  store i32 %38, ptr %3, align 4
  br label %40

39:                                               ; preds = %2
  store i32 -1, ptr %3, align 4
  br label %40

40:                                               ; preds = %39, %35, %31, %27, %23, %19, %15, %11
  %41 = load i32, ptr %3, align 4
  ret i32 %41
}