; Function Attrs: nounwind uwtable
define internal fastcc range(i32 -1, 1) i32 @parser_bare_item(ptr noundef captures(none) %0, ptr noundef %1) unnamed_addr #0 {
  %3 = load ptr, ptr %0, align 8, !tbaa !10
  %4 = load i8, ptr %3, align 1, !tbaa !12
  switch i8 %4, label %parser_token.exit [
    i8 34, label %5
    i8 45, label %7
    i8 48, label %7
    i8 49, label %7
    i8 50, label %7
    i8 51, label %7
    i8 52, label %7
    i8 53, label %7
    i8 54, label %7
    i8 55, label %7
    i8 56, label %7
    i8 57, label %7
    i8 64, label %9
    i8 58, label %11
    i8 63, label %13
    i8 42, label %15
    i8 65, label %15
    i8 66, label %15
    i8 67, label %15
    i8 68, label %15
    i8 69, label %15
    i8 70, label %15
    i8 71, label %15
    i8 72, label %15
    i8 73, label %15
    i8 74, label %15
    i8 75, label %15
    i8 76, label %15
    i8 77, label %15
    i8 78, label %15
    i8 79, label %15
    i8 80, label %15
    i8 81, label %15
    i8 82, label %15
    i8 83, label %15
    i8 84, label %15
    i8 85, label %15
    i8 86, label %15
    i8 87, label %15
    i8 88, label %15
    i8 89, label %15
    i8 90, label %15
    i8 97, label %15
    i8 98, label %15
    i8 99, label %15
    i8 100, label %15
    i8 101, label %15
    i8 102, label %15
    i8 103, label %15
    i8 104, label %15
    i8 105, label %15
    i8 106, label %15
    i8 107, label %15
    i8 108, label %15
    i8 109, label %15
    i8 110, label %15
    i8 111, label %15
    i8 112, label %15
    i8 113, label %15
    i8 114, label %15
    i8 115, label %15
    i8 116, label %15
    i8 117, label %15
    i8 118, label %15
    i8 119, label %15
    i8 120, label %15
    i8 121, label %15
    i8 122, label %15
    i8 37, label %27
  ]

5:                                                ; preds = %2
  %6 = tail call fastcc i32 @parser_string(ptr noundef nonnull %0, ptr noundef %1)
  br label %parser_token.exit

7:                                                ; preds = %2, %2, %2, %2, %2, %2, %2, %2, %2, %2, %2
  %8 = tail call fastcc i32 @parser_number(ptr noundef nonnull %0, ptr noundef %1)
  br label %parser_token.exit

9:                                                ; preds = %2
  %10 = tail call fastcc i32 @parser_date(ptr noundef nonnull %0, ptr noundef %1)
  br label %parser_token.exit

11:                                               ; preds = %2
  %12 = tail call fastcc i32 @parser_byteseq(ptr noundef nonnull %0, ptr noundef %1)
  br label %parser_token.exit

13:                                               ; preds = %2
  %14 = tail call fastcc i32 @parser_boolean(ptr noundef nonnull %0, ptr noundef %1)
  br label %parser_token.exit

15:                                               ; preds = %2, %2, %2, %2, %2, %2, %2, %2, %2, %2, %2, %2, %2, %2, %2, %2, %2, %2, %2, %2, %2, %2, %2, %2, %2, %2, %2, %2, %2, %2, %2, %2, %2, %2, %2, %2, %2, %2, %2, %2, %2, %2, %2, %2, %2, %2, %2, %2, %2, %2, %2, %2, %2
  %16 = getelementptr i8, ptr %0, i64 8
  %.val13.i = load ptr, ptr %16, align 8, !tbaa !11
  %storemerge14.i = getelementptr inbounds nuw i8, ptr %3, i64 1
  store ptr %storemerge14.i, ptr %0, align 8, !tbaa !10
  %.not15.i = icmp eq ptr %storemerge14.i, %.val13.i
  br i1 %.not15.i, label %._crit_edge.i, label %.lr.ph.i

.lr.ph.i:                                         ; preds = %15, %18
  %storemerge16.i = phi ptr [ %storemerge.i, %18 ], [ %storemerge14.i, %15 ]
  %17 = load i8, ptr %storemerge16.i, align 1, !tbaa !12
  switch i8 %17, label %._crit_edge.i [
    i8 33, label %18
    i8 35, label %18
    i8 36, label %18
    i8 37, label %18
    i8 38, label %18
    i8 39, label %18
    i8 42, label %18
    i8 43, label %18
    i8 45, label %18
    i8 46, label %18
    i8 47, label %18
    i8 48, label %18
    i8 49, label %18
    i8 50, label %18
    i8 51, label %18
    i8 52, label %18
    i8 53, label %18
    i8 54, label %18
    i8 55, label %18
    i8 56, label %18
    i8 57, label %18
    i8 58, label %18
    i8 65, label %18
    i8 66, label %18
    i8 67, label %18
    i8 68, label %18
    i8 69, label %18
    i8 70, label %18
    i8 71, label %18
    i8 72, label %18
    i8 73, label %18
    i8 74, label %18
    i8 75, label %18
    i8 76, label %18
    i8 77, label %18
    i8 78, label %18
    i8 79, label %18
    i8 80, label %18
    i8 81, label %18
    i8 82, label %18
    i8 83, label %18
    i8 84, label %18
    i8 85, label %18
    i8 86, label %18
    i8 87, label %18
    i8 88, label %18
    i8 89, label %18
    i8 90, label %18
    i8 94, label %18
    i8 95, label %18
    i8 96, label %18
    i8 97, label %18
    i8 98, label %18
    i8 99, label %18
    i8 100, label %18
    i8 101, label %18
    i8 102, label %18
    i8 103, label %18
    i8 104, label %18
    i8 105, label %18
    i8 106, label %18
    i8 107, label %18
    i8 108, label %18
    i8 109, label %18
    i8 110, label %18
    i8 111, label %18
    i8 112, label %18
    i8 113, label %18
    i8 114, label %18
    i8 115, label %18
    i8 116, label %18
    i8 117, label %18
    i8 118, label %18
    i8 119, label %18
    i8 120, label %18
    i8 121, label %18
    i8 122, label %18
    i8 124, label %18
    i8 126, label %18
  ]

18:                                               ; preds = %.lr.ph.i, %.lr.ph.i, %.lr.ph.i, %.lr.ph.i, %.lr.ph.i, %.lr.ph.i, %.lr.ph.i, %.lr.ph.i, %.lr.ph.i, %.lr.ph.i, %.lr.ph.i, %.lr.ph.i, %.lr.ph.i, %.lr.ph.i, %.lr.ph.i, %.lr.ph.i, %.lr.ph.i, %.lr.ph.i, %.lr.ph.i, %.lr.ph.i, %.lr.ph.i, %.lr.ph.i, %.lr.ph.i, %.lr.ph.i, %.lr.ph.i, %.lr.ph.i, %.lr.ph.i, %.lr.ph.i, %.lr.ph.i, %.lr.ph.i, %.lr.ph.i, %.lr.ph.i, %.lr.ph.i, %.lr.ph.i, %.lr.ph.i, %.lr.ph.i, %.lr.ph.i, %.lr.ph.i, %.lr.ph.i, %.lr.ph.i, %.lr.ph.i, %.lr.ph.i, %.lr.ph.i, %.lr.ph.i, %.lr.ph.i, %.lr.ph.i, %.lr.ph.i, %.lr.ph.i, %.lr.ph.i, %.lr.ph.i, %.lr.ph.i, %.lr.ph.i, %.lr.ph.i, %.lr.ph.i, %.lr.ph.i, %.lr.ph.i, %.lr.ph.i, %.lr.ph.i, %.lr.ph.i, %.lr.ph.i, %.lr.ph.i, %.lr.ph.i, %.lr.ph.i, %.lr.ph.i, %.lr.ph.i, %.lr.ph.i, %.lr.ph.i, %.lr.ph.i, %.lr.ph.i, %.lr.ph.i, %.lr.ph.i, %.lr.ph.i, %.lr.ph.i, %.lr.ph.i, %.lr.ph.i, %.lr.ph.i, %.lr.ph.i, %.lr.ph.i, %.lr.ph.i
  %storemerge.i = getelementptr inbounds nuw i8, ptr %storemerge16.i, i64 1
  store ptr %storemerge.i, ptr %0, align 8, !tbaa !10
  %.not.i = icmp eq ptr %storemerge.i, %.val13.i
  br i1 %.not.i, label %._crit_edge.i, label %.lr.ph.i, !llvm.loop !23

._crit_edge.i:                                    ; preds = %18, %.lr.ph.i, %15
  %.not12.i = icmp eq ptr %1, null
  br i1 %.not12.i, label %parser_token.exit, label %19

19:                                               ; preds = %._crit_edge.i
  store i32 4, ptr %1, align 8, !tbaa !15
  %20 = getelementptr inbounds nuw i8, ptr %1, i64 4
  store i32 0, ptr %20, align 4, !tbaa !17
  %21 = getelementptr inbounds nuw i8, ptr %1, i64 8
  store ptr %3, ptr %21, align 8, !tbaa !12
  %22 = load ptr, ptr %0, align 8, !tbaa !10
  %23 = ptrtoint ptr %22 to i64
  %24 = ptrtoint ptr %3 to i64
  %25 = sub i64 %23, %24
  %26 = getelementptr inbounds nuw i8, ptr %1, i64 16
  store i64 %25, ptr %26, align 8, !tbaa !12
  br label %parser_token.exit

27:                                               ; preds = %2
  %28 = tail call fastcc i32 @parser_dispstring(ptr noundef nonnull %0, ptr noundef %1)
  br label %parser_token.exit

parser_token.exit:                                ; preds = %19, %._crit_edge.i, %2, %27, %13, %11, %9, %7, %5
  %.0 = phi i32 [ %28, %27 ], [ %14, %13 ], [ %12, %11 ], [ %10, %9 ], [ %8, %7 ], [ %6, %5 ], [ -1, %2 ], [ 0, %._crit_edge.i ], [ 0, %19 ]
  ret i32 %.0
}